; Function Attrs: mustprogress nounwind uwtable
define hidden void @_ZN12ObjectLockerD2Ev(ptr noundef nonnull align 8 dereferenceable(24) %0) unnamed_addr #0 align 2 {
  %2 = getelementptr inbounds i8, ptr %0, i64 8
  %3 = load ptr, ptr %2, align 8
  %4 = icmp eq ptr %3, null
  br i1 %4, label %_ZNK6HandleclEv.exit.thread, label %_ZNK6HandleclEv.exit

_ZNK6HandleclEv.exit:                             ; preds = %1
  %5 = load ptr, ptr %3, align 8
  %.not = icmp eq ptr %5, null
  br i1 %.not, label %_ZNK6HandleclEv.exit.thread, label %_ZNK6HandleclEv.exit1

_ZNK6HandleclEv.exit1:                            ; preds = %_ZNK6HandleclEv.exit
  %6 = getelementptr inbounds i8, ptr %0, i64 16
  %7 = load ptr, ptr %0, align 8
  tail call void @_ZN18ObjectSynchronizer4exitEP7oopDescP9BasicLockP10JavaThread(ptr noundef nonnull %5, ptr noundef nonnull %6, ptr noundef %7)
  br label %_ZNK6HandleclEv.exit.thread

_ZNK6HandleclEv.exit.thread:                      ; preds = %1, %_ZNK6HandleclEv.exit1, %_ZNK6HandleclEv.exit
  ret void
}